(dp1
S'grad_clip'
p2
F2
sS'dim'
p3
I1024
sS'optimizer'
p4
S'adam'
p5
sS'dim_word'
p6
I300
sS'data'
p7
S'coco'
p8
sS'n_words'
p9
I32198
sS'batch_size'
p10
I128
sS'encoder'
p11
S'gru'
p12
sS'maxlen_w'
p13
I100
sS'saveto'
p14
S'/ais/gobi3/u/rkiros/uvsmodels/coco.npz'
p15
sS'ncon'
p16
I100
sS'max_epochs'
p17
I50
sS'dim_image'
p18
I4096
sS'dispFreq'
p19
I10
sS'decay_c'
p20
F0
sS'margin'
p21
F0.20000000000000001
sS'reload_'
p22
I00
sS'validFreq'
p23
I100
s.